; Function Attrs: nounwind uwtable
define ptr @l_Std_Time_PlainDateTime_nanosecond___boxed(ptr noundef %0) local_unnamed_addr #1 {
  %2 = getelementptr inbounds nuw i8, ptr %0, i64 16
  %3 = load ptr, ptr %2, align 8, !tbaa !5
  %4 = getelementptr inbounds nuw i8, ptr %3, i64 32
  %5 = load ptr, ptr %4, align 8, !tbaa !5
  %6 = ptrtoint ptr %5 to i64
  %7 = and i64 %6, 1
  %.not.i3 = icmp eq i64 %7, 0
  br i1 %.not.i3, label %8, label %l_Std_Time_PlainDateTime_nanosecond.exit

8:                                                ; preds = %1
  %.val.i.i = load i32, ptr %5, align 4, !tbaa !9
  %9 = icmp sgt i32 %.val.i.i, 0
  br i1 %9, label %10, label %12, !prof !12

10:                                               ; preds = %8
  %11 = add nuw i32 %.val.i.i, 1
  store i32 %11, ptr %5, align 4, !tbaa !9
  br label %l_Std_Time_PlainDateTime_nanosecond.exit

12:                                               ; preds = %8
  %.not.i.i = icmp eq i32 %.val.i.i, 0
  br i1 %.not.i.i, label %l_Std_Time_PlainDateTime_nanosecond.exit, label %13

13:                                               ; preds = %12
  tail call void @lean_inc_ref_cold(ptr noundef nonnull %5) #5
  br label %l_Std_Time_PlainDateTime_nanosecond.exit

l_Std_Time_PlainDateTime_nanosecond.exit:         ; preds = %1, %10, %12, %13
  %14 = ptrtoint ptr %0 to i64
  %15 = and i64 %14, 1
  %.not = icmp eq i64 %15, 0
  br i1 %.not, label %16, label %lean_dec.exit

16:                                               ; preds = %l_Std_Time_PlainDateTime_nanosecond.exit
  %17 = load i32, ptr %0, align 4, !tbaa !9
  %18 = icmp sgt i32 %17, 1
  br i1 %18, label %19, label %21, !prof !12

19:                                               ; preds = %16
  %20 = add nsw i32 %17, -1
  store i32 %20, ptr %0, align 4, !tbaa !9
  br label %lean_dec.exit

21:                                               ; preds = %16
  %.not.i = icmp eq i32 %17, 0
  br i1 %.not.i, label %lean_dec.exit, label %22

22:                                               ; preds = %21
  tail call void @lean_dec_ref_cold(ptr noundef nonnull %0) #5
  br label %lean_dec.exit

lean_dec.exit:                                    ; preds = %22, %21, %19, %l_Std_Time_PlainDateTime_nanosecond.exit
  ret ptr %5
}